target datalayout = "e-m:e-p270:32:32-p271:32:32-p272:64:64-i64:64-i128:128-f80:128-n8:16:32:64-S128"
target triple = "x86_64-pc-linux-gnu"

%struct.FormData_pg_foreign_data_wrapper = type { i32, %struct.nameData, i32, i32, i32 }
%struct.nameData = type { [64 x i8] }
%struct.HeapTupleData = type { i32, %struct.ItemPointerData, i32, ptr }
%struct.ItemPointerData = type { %struct.BlockIdData, i16 }
%struct.BlockIdData = type { i16, i16 }
%struct.HeapTupleHeaderData = type { %union.anon, %struct.ItemPointerData, i16, i16, i8, [0 x i8] }
%union.anon = type { %struct.HeapTupleFields }
%struct.HeapTupleFields = type { i32, i32, %union.anon.0 }
%union.anon.0 = type { i32 }
%struct.FormData_pg_foreign_server = type { i32, %struct.nameData, i32, i32 }

@.str = private unnamed_addr constant [48 x i8] c"cache lookup failed for foreign-data wrapper %u\00", align 1
@.str.1 = private unnamed_addr constant [10 x i8] c"foreign.c\00", align 1
@.str.2 = private unnamed_addr constant [42 x i8] c"cache lookup failed for foreign server %u\00", align 1
@__func__.GetFdwRoutineByServerId = private unnamed_addr constant [24 x i8] c"GetFdwRoutineByServerId\00", align 1
@.str.9 = private unnamed_addr constant [41 x i8] c"foreign-data wrapper \22%s\22 has no handler\00", align 1

; Function Attrs: inlinehint nounwind uwtable
define internal ptr @GETSTRUCT(ptr noundef %0) #3 {
  %2 = alloca ptr, align 8
  store ptr %0, ptr %2, align 8
  %3 = load ptr, ptr %2, align 8
  %4 = getelementptr inbounds nuw %struct.HeapTupleData, ptr %3, i32 0, i32 3
  %5 = load ptr, ptr %4, align 8
  %6 = load ptr, ptr %2, align 8
  %7 = getelementptr inbounds nuw %struct.HeapTupleData, ptr %6, i32 0, i32 3
  %8 = load ptr, ptr %7, align 8
  %9 = getelementptr inbounds nuw %struct.HeapTupleHeaderData, ptr %8, i32 0, i32 4
  %10 = load i8, ptr %9, align 2
  %11 = zext i8 %10 to i32
  %12 = sext i32 %11 to i64
  %13 = getelementptr inbounds i8, ptr %5, i64 %12
  ret ptr %13
}

; Function Attrs: inlinehint nounwind uwtable
define internal i64 @ObjectIdGetDatum(i32 noundef %0) #3 {
  %2 = alloca i32, align 4
  store i32 %0, ptr %2, align 4
  %3 = load i32, ptr %2, align 4
  %4 = zext i32 %3 to i64
  ret i64 %4
}

; Function Attrs: nounwind uwtable
define dso_local ptr @GetFdwRoutineByServerId(i32 noundef %0) #0 {
  %2 = alloca i32, align 4
  %3 = alloca ptr, align 8
  %4 = alloca ptr, align 8
  %5 = alloca ptr, align 8
  %6 = alloca i32, align 4
  %7 = alloca i32, align 4
  store i32 %0, ptr %2, align 4
  call void @llvm.lifetime.start.p0(i64 8, ptr %3) #9
  call void @llvm.lifetime.start.p0(i64 8, ptr %4) #9
  call void @llvm.lifetime.start.p0(i64 8, ptr %5) #9
  call void @llvm.lifetime.start.p0(i64 4, ptr %6) #9
  call void @llvm.lifetime.start.p0(i64 4, ptr %7) #9
  %8 = load i32, ptr %2, align 4
  %9 = call i64 @ObjectIdGetDatum(i32 noundef %8)
  %10 = call ptr @SearchSysCache1(i32 noundef 32, i64 noundef %9)
  store ptr %10, ptr %3, align 8
  %11 = load ptr, ptr %3, align 8
  %12 = icmp ne ptr %11, null
  br i1 %12, label %25, label %13

13:                                               ; preds = %1
  br label %14

14:                                               ; preds = %13
  br i1 true, label %15, label %17

15:                                               ; preds = %14
  %16 = call zeroext i1 @errstart_cold(i32 noundef 21, ptr noundef null) #10
  br i1 %16, label %19, label %22

17:                                               ; preds = %14
  %18 = call zeroext i1 @errstart(i32 noundef 21, ptr noundef null)
  br i1 %18, label %19, label %22

19:                                               ; preds = %17, %15
  %20 = load i32, ptr %2, align 4
  %21 = call i32 (ptr, ...) @errmsg_internal(ptr noundef @.str.2, i32 noundef %20)
  call void @errfinish(ptr noundef @.str.1, i32 noundef 388, ptr noundef @__func__.GetFdwRoutineByServerId)
  br label %22

22:                                               ; preds = %19, %17, %15
  unreachable

23:                                               ; No predecessors!
  br label %24

24:                                               ; preds = %23
  br label %25

25:                                               ; preds = %24, %1
  %26 = load ptr, ptr %3, align 8
  %27 = call ptr @GETSTRUCT(ptr noundef %26)
  store ptr %27, ptr %5, align 8
  %28 = load ptr, ptr %5, align 8
  %29 = getelementptr inbounds nuw %struct.FormData_pg_foreign_server, ptr %28, i32 0, i32 3
  %30 = load i32, ptr %29, align 4
  store i32 %30, ptr %6, align 4
  %31 = load ptr, ptr %3, align 8
  call void @ReleaseSysCache(ptr noundef %31)
  %32 = load i32, ptr %6, align 4
  %33 = call i64 @ObjectIdGetDatum(i32 noundef %32)
  %34 = call ptr @SearchSysCache1(i32 noundef 30, i64 noundef %33)
  store ptr %34, ptr %3, align 8
  %35 = load ptr, ptr %3, align 8
  %36 = icmp ne ptr %35, null
  br i1 %36, label %49, label %37

37:                                               ; preds = %25
  br label %38

38:                                               ; preds = %37
  br i1 true, label %39, label %41

39:                                               ; preds = %38
  %40 = call zeroext i1 @errstart_cold(i32 noundef 21, ptr noundef null) #10
  br i1 %40, label %43, label %46

41:                                               ; preds = %38
  %42 = call zeroext i1 @errstart(i32 noundef 21, ptr noundef null)
  br i1 %42, label %43, label %46

43:                                               ; preds = %41, %39
  %44 = load i32, ptr %6, align 4
  %45 = call i32 (ptr, ...) @errmsg_internal(ptr noundef @.str, i32 noundef %44)
  call void @errfinish(ptr noundef @.str.1, i32 noundef 396, ptr noundef @__func__.GetFdwRoutineByServerId)
  br label %46

46:                                               ; preds = %43, %41, %39
  unreachable

47:                                               ; No predecessors!
  br label %48

48:                                               ; preds = %47
  br label %49

49:                                               ; preds = %48, %25
  %50 = load ptr, ptr %3, align 8
  %51 = call ptr @GETSTRUCT(ptr noundef %50)
  store ptr %51, ptr %4, align 8
  %52 = load ptr, ptr %4, align 8
  %53 = getelementptr inbounds nuw %struct.FormData_pg_foreign_data_wrapper, ptr %52, i32 0, i32 3
  %54 = load i32, ptr %53, align 4
  store i32 %54, ptr %7, align 4
  %55 = load i32, ptr %7, align 4
  %56 = icmp ne i32 %55, 0
  br i1 %56, label %73, label %57

57:                                               ; preds = %49
  br label %58

58:                                               ; preds = %57
  br i1 true, label %59, label %61

59:                                               ; preds = %58
  %60 = call zeroext i1 @errstart_cold(i32 noundef 21, ptr noundef null) #10
  br i1 %60, label %63, label %70

61:                                               ; preds = %58
  %62 = call zeroext i1 @errstart(i32 noundef 21, ptr noundef null)
  br i1 %62, label %63, label %70

63:                                               ; preds = %61, %59
  %64 = call i32 @errcode(i32 noundef 325)
  %65 = load ptr, ptr %4, align 8
  %66 = getelementptr inbounds nuw %struct.FormData_pg_foreign_data_wrapper, ptr %65, i32 0, i32 1
  %67 = getelementptr inbounds nuw %struct.nameData, ptr %66, i32 0, i32 0
  %68 = getelementptr inbounds [64 x i8], ptr %67, i64 0, i64 0
  %69 = call i32 (ptr, ...) @errmsg(ptr noundef @.str.9, ptr noundef %68)
  call void @errfinish(ptr noundef @.str.1, i32 noundef 405, ptr noundef @__func__.GetFdwRoutineByServerId)
  br label %70

70:                                               ; preds = %63, %61, %59
  unreachable

71:                                               ; No predecessors!
  br label %72

72:                                               ; preds = %71
  br label %73

73:                                               ; preds = %72, %49
  %74 = load ptr, ptr %3, align 8
  call void @ReleaseSysCache(ptr noundef %74)
  %75 = load i32, ptr %7, align 4
  %76 = call ptr @GetFdwRoutine(i32 noundef %75)
  call void @llvm.lifetime.end.p0(i64 4, ptr %7) #9
  call void @llvm.lifetime.end.p0(i64 4, ptr %6) #9
  call void @llvm.lifetime.end.p0(i64 8, ptr %5) #9
  call void @llvm.lifetime.end.p0(i64 8, ptr %4) #9
  call void @llvm.lifetime.end.p0(i64 8, ptr %3) #9
  ret ptr %76
}