; Function Attrs: nounwind uwtable
define dso_local nonnull ptr @GetFdwRoutineByServerId(i32 noundef %0) local_unnamed_addr #0 {
  %2 = zext i32 %0 to i64
  %3 = tail call ptr @SearchSysCache1(i32 noundef 32, i64 noundef %2) #8
  %.not = icmp eq ptr %3, null
  br i1 %.not, label %4, label %7

4:                                                ; preds = %1
  %5 = tail call zeroext i1 @errstart_cold(i32 noundef 21, ptr noundef null) #9
  tail call void @llvm.assume(i1 %5)
  %6 = tail call i32 (ptr, ...) @errmsg_internal(ptr noundef nonnull @.str.2, i32 noundef %0) #8
  tail call void @errfinish(ptr noundef nonnull @.str.1, i32 noundef 388, ptr noundef nonnull @__func__.GetFdwRoutineByServerId) #8
  unreachable

7:                                                ; preds = %1
  %8 = getelementptr i8, ptr %3, i64 16
  %.val18 = load ptr, ptr %8, align 8
  %9 = getelementptr inbounds nuw i8, ptr %.val18, i64 22
  %10 = load i8, ptr %9, align 2
  %11 = zext i8 %10 to i64
  %12 = getelementptr inbounds nuw i8, ptr %.val18, i64 %11
  %13 = getelementptr inbounds nuw i8, ptr %12, i64 72
  %14 = load i32, ptr %13, align 4
  tail call void @ReleaseSysCache(ptr noundef nonnull %3) #8
  %15 = zext i32 %14 to i64
  %16 = tail call ptr @SearchSysCache1(i32 noundef 30, i64 noundef %15) #8
  %.not16 = icmp eq ptr %16, null
  br i1 %.not16, label %17, label %20

17:                                               ; preds = %7
  %18 = tail call zeroext i1 @errstart_cold(i32 noundef 21, ptr noundef null) #9
  tail call void @llvm.assume(i1 %18)
  %19 = tail call i32 (ptr, ...) @errmsg_internal(ptr noundef nonnull @.str, i32 noundef %14) #8
  tail call void @errfinish(ptr noundef nonnull @.str.1, i32 noundef 396, ptr noundef nonnull @__func__.GetFdwRoutineByServerId) #8
  unreachable

20:                                               ; preds = %7
  %21 = getelementptr i8, ptr %16, i64 16
  %.val = load ptr, ptr %21, align 8
  %22 = getelementptr inbounds nuw i8, ptr %.val, i64 22
  %23 = load i8, ptr %22, align 2
  %24 = zext i8 %23 to i64
  %25 = getelementptr inbounds nuw i8, ptr %.val, i64 %24
  %26 = getelementptr inbounds nuw i8, ptr %25, i64 72
  %27 = load i32, ptr %26, align 4
  %.not17 = icmp eq i32 %27, 0
  br i1 %.not17, label %28, label %33

28:                                               ; preds = %20
  %29 = tail call zeroext i1 @errstart_cold(i32 noundef 21, ptr noundef null) #9
  tail call void @llvm.assume(i1 %29)
  %30 = tail call i32 @errcode(i32 noundef 325) #8
  %31 = getelementptr inbounds nuw i8, ptr %25, i64 4
  %32 = tail call i32 (ptr, ...) @errmsg(ptr noundef nonnull @.str.9, ptr noundef nonnull %31) #8
  tail call void @errfinish(ptr noundef nonnull @.str.1, i32 noundef 405, ptr noundef nonnull @__func__.GetFdwRoutineByServerId) #8
  unreachable

33:                                               ; preds = %20
  tail call void @ReleaseSysCache(ptr noundef nonnull %16) #8
  %34 = tail call ptr @GetFdwRoutine(i32 noundef %27)
  ret ptr %34
}